; Function Attrs: mustprogress nofree norecurse nosync nounwind willreturn memory(read, inaccessiblemem: none) uwtable
define dso_local noundef zeroext i1 @_ZN5vcpkg17is_git_commit_shaENS_10StringViewE(ptr readonly %0, i64 %1) local_unnamed_addr #8 {
  %3 = icmp eq i64 %1, 40
  br i1 %3, label %.lr.ph.preheader.i.i.i.i, label %31

.lr.ph.preheader.i.i.i.i:                         ; preds = %2
  %4 = getelementptr i8, ptr %0, i64 40
  br label %.lr.ph.i.i.i.i

.lr.ph.i.i.i.i:                                   ; preds = %23, %.lr.ph.preheader.i.i.i.i
  %.056.i.i.i.i = phi i64 [ %25, %23 ], [ 10, %.lr.ph.preheader.i.i.i.i ]
  %.02955.i.i.i.i = phi ptr [ %24, %23 ], [ %0, %.lr.ph.preheader.i.i.i.i ]
  %.029.val.i.i.i.i = load i8, ptr %.02955.i.i.i.i, align 1
  %5 = add i8 %.029.val.i.i.i.i, -58
  %or.cond.i.i.i.i.i.i = icmp ult i8 %5, -10
  %6 = add i8 %.029.val.i.i.i.i, -103
  %7 = icmp ult i8 %6, -6
  %.not1.i.i.i.i.i = and i1 %or.cond.i.i.i.i.i.i, %7
  br i1 %.not1.i.i.i.i.i, label %"_ZSt6all_ofIPKcZN5vcpkg17is_git_commit_shaENS2_10StringViewEE3$_0EbT_S5_T0_.exit", label %8

8:                                                ; preds = %.lr.ph.i.i.i.i
  %9 = getelementptr inbounds i8, ptr %.02955.i.i.i.i, i64 1
  %.val.i.i.i.i = load i8, ptr %9, align 1
  %10 = add i8 %.val.i.i.i.i, -58
  %or.cond.i.i33.i.i.i.i = icmp ult i8 %10, -10
  %11 = add i8 %.val.i.i.i.i, -103
  %12 = icmp ult i8 %11, -6
  %.not1.i34.i.i.i.i = and i1 %or.cond.i.i33.i.i.i.i, %12
  br i1 %.not1.i34.i.i.i.i, label %"_ZSt6all_ofIPKcZN5vcpkg17is_git_commit_shaENS2_10StringViewEE3$_0EbT_S5_T0_.exit.split.loop.exit19", label %13

13:                                               ; preds = %8
  %14 = getelementptr inbounds i8, ptr %.02955.i.i.i.i, i64 2
  %.val30.i.i.i.i = load i8, ptr %14, align 1
  %15 = add i8 %.val30.i.i.i.i, -58
  %or.cond.i.i35.i.i.i.i = icmp ult i8 %15, -10
  %16 = add i8 %.val30.i.i.i.i, -103
  %17 = icmp ult i8 %16, -6
  %.not1.i36.i.i.i.i = and i1 %or.cond.i.i35.i.i.i.i, %17
  br i1 %.not1.i36.i.i.i.i, label %"_ZSt6all_ofIPKcZN5vcpkg17is_git_commit_shaENS2_10StringViewEE3$_0EbT_S5_T0_.exit.split.loop.exit17", label %18

18:                                               ; preds = %13
  %19 = getelementptr inbounds i8, ptr %.02955.i.i.i.i, i64 3
  %.val31.i.i.i.i = load i8, ptr %19, align 1
  %20 = add i8 %.val31.i.i.i.i, -58
  %or.cond.i.i37.i.i.i.i = icmp ult i8 %20, -10
  %21 = add i8 %.val31.i.i.i.i, -103
  %22 = icmp ult i8 %21, -6
  %.not1.i38.i.i.i.i = and i1 %or.cond.i.i37.i.i.i.i, %22
  br i1 %.not1.i38.i.i.i.i, label %"_ZSt6all_ofIPKcZN5vcpkg17is_git_commit_shaENS2_10StringViewEE3$_0EbT_S5_T0_.exit.split.loop.exit15", label %23

23:                                               ; preds = %18
  %24 = getelementptr inbounds i8, ptr %.02955.i.i.i.i, i64 4
  %25 = add nsw i64 %.056.i.i.i.i, -1
  %26 = icmp ugt i64 %.056.i.i.i.i, 1
  br i1 %26, label %.lr.ph.i.i.i.i, label %"_ZSt6all_ofIPKcZN5vcpkg17is_git_commit_shaENS2_10StringViewEE3$_0EbT_S5_T0_.exit", !llvm.loop !62

"_ZSt6all_ofIPKcZN5vcpkg17is_git_commit_shaENS2_10StringViewEE3$_0EbT_S5_T0_.exit.split.loop.exit15": ; preds = %18
  %27 = getelementptr inbounds i8, ptr %.02955.i.i.i.i, i64 3
  br label %"_ZSt6all_ofIPKcZN5vcpkg17is_git_commit_shaENS2_10StringViewEE3$_0EbT_S5_T0_.exit"

"_ZSt6all_ofIPKcZN5vcpkg17is_git_commit_shaENS2_10StringViewEE3$_0EbT_S5_T0_.exit.split.loop.exit17": ; preds = %13
  %28 = getelementptr inbounds i8, ptr %.02955.i.i.i.i, i64 2
  br label %"_ZSt6all_ofIPKcZN5vcpkg17is_git_commit_shaENS2_10StringViewEE3$_0EbT_S5_T0_.exit"

"_ZSt6all_ofIPKcZN5vcpkg17is_git_commit_shaENS2_10StringViewEE3$_0EbT_S5_T0_.exit.split.loop.exit19": ; preds = %8
  %29 = getelementptr inbounds i8, ptr %.02955.i.i.i.i, i64 1
  br label %"_ZSt6all_ofIPKcZN5vcpkg17is_git_commit_shaENS2_10StringViewEE3$_0EbT_S5_T0_.exit"

"_ZSt6all_ofIPKcZN5vcpkg17is_git_commit_shaENS2_10StringViewEE3$_0EbT_S5_T0_.exit": ; preds = %23, %.lr.ph.i.i.i.i, %"_ZSt6all_ofIPKcZN5vcpkg17is_git_commit_shaENS2_10StringViewEE3$_0EbT_S5_T0_.exit.split.loop.exit19", %"_ZSt6all_ofIPKcZN5vcpkg17is_git_commit_shaENS2_10StringViewEE3$_0EbT_S5_T0_.exit.split.loop.exit17", %"_ZSt6all_ofIPKcZN5vcpkg17is_git_commit_shaENS2_10StringViewEE3$_0EbT_S5_T0_.exit.split.loop.exit15"
  %.028.i.i.i.i = phi ptr [ %27, %"_ZSt6all_ofIPKcZN5vcpkg17is_git_commit_shaENS2_10StringViewEE3$_0EbT_S5_T0_.exit.split.loop.exit15" ], [ %28, %"_ZSt6all_ofIPKcZN5vcpkg17is_git_commit_shaENS2_10StringViewEE3$_0EbT_S5_T0_.exit.split.loop.exit17" ], [ %29, %"_ZSt6all_ofIPKcZN5vcpkg17is_git_commit_shaENS2_10StringViewEE3$_0EbT_S5_T0_.exit.split.loop.exit19" ], [ %.02955.i.i.i.i, %.lr.ph.i.i.i.i ], [ %4, %23 ]
  %30 = icmp eq ptr %.028.i.i.i.i, %4
  br label %31

31:                                               ; preds = %"_ZSt6all_ofIPKcZN5vcpkg17is_git_commit_shaENS2_10StringViewEE3$_0EbT_S5_T0_.exit", %2
  %32 = phi i1 [ false, %2 ], [ %30, %"_ZSt6all_ofIPKcZN5vcpkg17is_git_commit_shaENS2_10StringViewEE3$_0EbT_S5_T0_.exit" ]
  ret i1 %32
}